(dp0
S'sms_len'
p1
(dp2
S'1'
p3
(dp4
S'sp_number'
p5
(dp6
g3
(dp7
S'bank_number'
p8
(dp9
g3
(dp10
S'url'
p11
(dp12
g3
S'yes'
p13
sS'0'
p14
(dp15
S'phone_number'
p16
(dp17
g3
S'yes'
p18
sssssg14
(dp19
g16
(dp20
g3
(dp21
g11
(dp22
g3
S'yes'
p23
sg14
S'yes'
p24
sssg14
(dp25
g11
(dp26
g3
S'yes'
p27
sg14
S'yes'
p28
sssssssg14
(dp29
g11
(dp30
g3
(dp31
g8
(dp32
g14
(dp33
g16
(dp34
g14
S'yes'
p35
sssssg14
(dp36
g8
(dp37
g14
(dp38
g16
(dp39
g14
S'yes'
p40
sssssssssg14
(dp41
g5
(dp42
g3
(dp43
g16
(dp44
g3
(dp45
g8
(dp46
g3
(dp47
g11
(dp48
g14
S'yes'
p49
sssg14
(dp50
g11
(dp51
g3
S'yes'
p52
sg14
S'yes'
p53
sssssg14
(dp54
g11
(dp55
g3
(dp56
g8
(dp57
g14
S'yes'
p58
sssg14
(dp59
g8
(dp60
g14
S'yes'
p61
sssssssg14
(dp62
g11
(dp63
g3
(dp64
g8
(dp65
g14
(dp66
g16
(dp67
g14
S'no'
p68
sssssg14
(dp69
g8
(dp70
g14
(dp71
g16
(dp72
g14
S'no'
p73
ssssssssss.