(dp0
S'sms_len'
p1
(dp2
S'1'
p3
(dp4
S'sp_number'
p5
(dp6
g3
(dp7
S'phone_number'
p8
(dp9
g3
S'yes'
p10
sS'0'
p11
(dp12
S'url'
p13
(dp14
g3
S'yes'
p15
sg11
(dp16
S'bank_number'
p17
(dp18
g11
S'yes'
p19
sssssssg11
(dp20
g13
(dp21
g3
(dp22
g17
(dp23
g11
(dp24
g8
(dp25
g11
S'yes'
p26
sssssg11
(dp27
g17
(dp28
g11
(dp29
g8
(dp30
g11
S'yes'
p31
sssssssssg11
(dp32
g5
(dp33
g3
(dp34
g8
(dp35
g3
(dp36
g17
(dp37
g3
(dp38
g13
(dp39
g11
S'yes'
p40
sssg11
(dp41
g13
(dp42
g11
S'yes'
p43
sssssg11
(dp44
g13
(dp45
g11
(dp46
g17
(dp47
g11
S'yes'
p48
sssssssg11
(dp49
g13
(dp50
g3
(dp51
g17
(dp52
g11
(dp53
g8
(dp54
g11
S'no'
p55
sssssg11
(dp56
g17
(dp57
g11
(dp58
g8
(dp59
g11
S'no'
p60
ssssssssss.