(dp0
S'sms_len'
p1
(dp2
S'1'
p3
(dp4
S'sp_number'
p5
(dp6
g3
(dp7
S'phone_number'
p8
(dp9
g3
S'yes'
p10
sS'0'
p11
(dp12
S'url'
p13
(dp14
g3
S'yes'
p15
sg11
(dp16
S'bank_number'
p17
(dp18
S'yes'
p19
g19
sS'no'
p20
g20
sssssssg11
(dp21
g13
(dp22
g3
(dp23
g17
(dp24
S'yes'
p25
g25
sS'no'
p26
g26
sssg11
(dp27
g17
(dp28
S'yes'
p29
g29
sS'no'
p30
g30
sssssssg11
(dp31
g5
(dp32
g3
(dp33
g8
(dp34
g3
(dp35
g17
(dp36
g3
(dp37
g13
(dp38
S'yes'
p39
g39
sS'no'
p40
g40
sssg11
(dp41
g13
(dp42
S'yes'
p43
g43
sS'no'
p44
g44
sssssg11
(dp45
g13
(dp46
S'yes'
p47
g47
sS'no'
p48
g48
sssssg11
(dp49
g13
(dp50
g3
(dp51
g17
(dp52
S'yes'
p53
g53
sS'no'
p54
g54
sssg11
(dp55
g17
(dp56
S'yes'
p57
g57
sS'no'
p58
g58
ssssssss.